csympy.core.add
Add
p0
(csympy.core.symbol
Symbol
p1
(S'a'
p2
tp3
Rp4
(dp5
S'_assumptions'
p6
ccopy_reg
_reconstructor
p7
(csympy.core.assumptions
StdFactKB
p8
c__builtin__
dict
p9
(dp10
S'commutative'
p11
I01
stp12
Rp13
(dp14
S'_generator'
p15
(dp16
sbsbcsympy.core.mul
Mul
p17
(csympy.core.numbers
Integer
p18
(I3
tp19
Rp20
(dp21
bg1
(S'c'
p22
tp23
Rp24
(dp25
g6
g7
(g8
g9
(dp26
S'commutative'
p27
I01
stp28
Rp29
(dp30
g15
(dp31
sbsbtp32
Rp33
(dp34
btp35
Rp36
(dp37
b.